target datalayout = "e-m:e-p270:32:32-p271:32:32-p272:64:64-i64:64-i128:128-f80:128-n8:16:32:64-S128"
target triple = "x86_64-pc-linux-gnu"

%struct.LogicalDecodingContext = type { ptr, ptr, ptr, ptr, ptr, i8, %struct.OutputPluginCallbacks, %struct.OutputPluginOptions, ptr, ptr, ptr, ptr, ptr, ptr, ptr, i8, i8, i8, i8, i8, i64, i32, i8, i8 }
%struct.OutputPluginCallbacks = type { ptr, ptr, ptr, ptr, ptr, ptr, ptr, ptr, ptr, ptr, ptr, ptr, ptr, ptr, ptr, ptr, ptr, ptr, ptr, ptr, ptr }
%struct.OutputPluginOptions = type { i32, i8 }
%struct.ReorderBuffer = type { ptr, %struct.dlist_head, %struct.dlist_head, %struct.dclist_head, i32, ptr, ptr, ptr, ptr, ptr, ptr, ptr, ptr, ptr, ptr, ptr, ptr, ptr, ptr, ptr, ptr, ptr, ptr, ptr, ptr, i8, ptr, ptr, ptr, ptr, i64, ptr, i64, i64, ptr, i64, i64, i64, i64, i64, i64, i64, i64 }
%struct.dlist_head = type { %struct.dlist_node }
%struct.dlist_node = type { ptr, ptr }
%struct.dclist_head = type { %struct.dlist_head, i32 }
%struct.LogicalErrorCallbackState = type { ptr, ptr, i64 }
%struct.ErrorContextCallback = type { ptr, ptr, ptr }
%struct.ReorderBufferTXN = type { i32, i32, i32, ptr, i64, i64, i64, ptr, i64, i16, i64, %union.anon, ptr, i64, %struct.dlist_node, ptr, i32, i64, i64, %struct.dlist_head, %struct.dlist_head, i64, ptr, ptr, %struct.dlist_head, i32, i32, ptr, %struct.dlist_node, %struct.dlist_node, %struct.pairingheap_node, i64, i64, ptr }
%union.anon = type { i64 }
%struct.pairingheap_node = type { ptr, ptr, ptr }
%struct.ReorderBufferChange = type { i64, i32, ptr, i16, %union.anon.0, %struct.dlist_node }
%union.anon.0 = type { %struct.anon.1 }
%struct.anon.1 = type { %struct.RelFileLocator, i8, ptr, ptr }
%struct.RelFileLocator = type { i32, i32, i32 }

@error_context_stack = external global ptr, align 8
@.str.38 = private unnamed_addr constant [7 x i8] c"change\00", align 1

; Function Attrs: nounwind uwtable
define internal void @change_cb_wrapper(ptr noundef %0, ptr noundef %1, ptr noundef %2, ptr noundef %3) #0 {
  %5 = alloca ptr, align 8
  %6 = alloca ptr, align 8
  %7 = alloca ptr, align 8
  %8 = alloca ptr, align 8
  %9 = alloca ptr, align 8
  %10 = alloca %struct.LogicalErrorCallbackState, align 8
  %11 = alloca %struct.ErrorContextCallback, align 8
  store ptr %0, ptr %5, align 8
  store ptr %1, ptr %6, align 8
  store ptr %2, ptr %7, align 8
  store ptr %3, ptr %8, align 8
  call void @llvm.lifetime.start.p0(i64 8, ptr %9) #10
  %12 = load ptr, ptr %5, align 8
  %13 = getelementptr inbounds nuw %struct.ReorderBuffer, ptr %12, i32 0, i32 24
  %14 = load ptr, ptr %13, align 8
  store ptr %14, ptr %9, align 8
  call void @llvm.lifetime.start.p0(i64 24, ptr %10) #10
  call void @llvm.lifetime.start.p0(i64 24, ptr %11) #10
  %15 = load ptr, ptr %9, align 8
  %16 = getelementptr inbounds nuw %struct.LogicalErrorCallbackState, ptr %10, i32 0, i32 0
  store ptr %15, ptr %16, align 8
  %17 = getelementptr inbounds nuw %struct.LogicalErrorCallbackState, ptr %10, i32 0, i32 1
  store ptr @.str.38, ptr %17, align 8
  %18 = load ptr, ptr %8, align 8
  %19 = getelementptr inbounds nuw %struct.ReorderBufferChange, ptr %18, i32 0, i32 0
  %20 = load i64, ptr %19, align 8
  %21 = getelementptr inbounds nuw %struct.LogicalErrorCallbackState, ptr %10, i32 0, i32 2
  store i64 %20, ptr %21, align 8
  %22 = getelementptr inbounds nuw %struct.ErrorContextCallback, ptr %11, i32 0, i32 1
  store ptr @output_plugin_error_callback, ptr %22, align 8
  %23 = getelementptr inbounds nuw %struct.ErrorContextCallback, ptr %11, i32 0, i32 2
  store ptr %10, ptr %23, align 8
  %24 = load ptr, ptr @error_context_stack, align 8
  %25 = getelementptr inbounds nuw %struct.ErrorContextCallback, ptr %11, i32 0, i32 0
  store ptr %24, ptr %25, align 8
  store ptr %11, ptr @error_context_stack, align 8
  %26 = load ptr, ptr %9, align 8
  %27 = getelementptr inbounds nuw %struct.LogicalDecodingContext, ptr %26, i32 0, i32 18
  store i8 1, ptr %27, align 1
  %28 = load ptr, ptr %6, align 8
  %29 = getelementptr inbounds nuw %struct.ReorderBufferTXN, ptr %28, i32 0, i32 1
  %30 = load i32, ptr %29, align 4
  %31 = load ptr, ptr %9, align 8
  %32 = getelementptr inbounds nuw %struct.LogicalDecodingContext, ptr %31, i32 0, i32 21
  store i32 %30, ptr %32, align 8
  %33 = load ptr, ptr %8, align 8
  %34 = getelementptr inbounds nuw %struct.ReorderBufferChange, ptr %33, i32 0, i32 0
  %35 = load i64, ptr %34, align 8
  %36 = load ptr, ptr %9, align 8
  %37 = getelementptr inbounds nuw %struct.LogicalDecodingContext, ptr %36, i32 0, i32 20
  store i64 %35, ptr %37, align 8
  %38 = load ptr, ptr %9, align 8
  %39 = getelementptr inbounds nuw %struct.LogicalDecodingContext, ptr %38, i32 0, i32 22
  store i8 0, ptr %39, align 4
  %40 = load ptr, ptr %9, align 8
  %41 = getelementptr inbounds nuw %struct.LogicalDecodingContext, ptr %40, i32 0, i32 6
  %42 = getelementptr inbounds nuw %struct.OutputPluginCallbacks, ptr %41, i32 0, i32 2
  %43 = load ptr, ptr %42, align 8
  %44 = load ptr, ptr %9, align 8
  %45 = load ptr, ptr %6, align 8
  %46 = load ptr, ptr %7, align 8
  %47 = load ptr, ptr %8, align 8
  call void %43(ptr noundef %44, ptr noundef %45, ptr noundef %46, ptr noundef %47)
  %48 = getelementptr inbounds nuw %struct.ErrorContextCallback, ptr %11, i32 0, i32 0
  %49 = load ptr, ptr %48, align 8
  store ptr %49, ptr @error_context_stack, align 8
  call void @llvm.lifetime.end.p0(i64 24, ptr %11) #10
  call void @llvm.lifetime.end.p0(i64 24, ptr %10) #10
  call void @llvm.lifetime.end.p0(i64 8, ptr %9) #10
  ret void
}